target datalayout = "e-m:e-p270:32:32-p271:32:32-p272:64:64-i64:64-i128:128-f80:128-n8:16:32:64-S128"
target triple = "x86_64-pc-linux-gnu"

%struct.TclStubs = type { i32, ptr, ptr, ptr, ptr, ptr, ptr, ptr, ptr, ptr, ptr, ptr, ptr, ptr, ptr, ptr, ptr, ptr, ptr, ptr, ptr, ptr, ptr, ptr, ptr, ptr, ptr, ptr, ptr, ptr, ptr, ptr, ptr, ptr, ptr, ptr, ptr, ptr, ptr, ptr, ptr, ptr, ptr, ptr, ptr, ptr, ptr, ptr, ptr, ptr, ptr, ptr, ptr, ptr, ptr, ptr, ptr, ptr, ptr, ptr, ptr, ptr, ptr, ptr, ptr, ptr, ptr, ptr, ptr, ptr, ptr, ptr, ptr, ptr, ptr, ptr, ptr, ptr, ptr, ptr, ptr, ptr, ptr, ptr, ptr, ptr, ptr, ptr, ptr, ptr, ptr, ptr, ptr, ptr, ptr, ptr, ptr, ptr, ptr, ptr, ptr, ptr, ptr, ptr, ptr, ptr, ptr, ptr, ptr, ptr, ptr, ptr, ptr, ptr, ptr, ptr, ptr, ptr, ptr, ptr, ptr, ptr, ptr, ptr, ptr, ptr, ptr, ptr, ptr, ptr, ptr, ptr, ptr, ptr, ptr, ptr, ptr, ptr, ptr, ptr, ptr, ptr, ptr, ptr, ptr, ptr, ptr, ptr, ptr, ptr, ptr, ptr, ptr, ptr, ptr, ptr, ptr, ptr, ptr, ptr, ptr, ptr, ptr, ptr, ptr, ptr, ptr, ptr, ptr, ptr, ptr, ptr, ptr, ptr, ptr, ptr, ptr, ptr, ptr, ptr, ptr, ptr, ptr, ptr, ptr, ptr, ptr, ptr, ptr, ptr, ptr, ptr, ptr, ptr, ptr, ptr, ptr, ptr, ptr, ptr, ptr, ptr, ptr, ptr, ptr, ptr, ptr, ptr, ptr, ptr, ptr, ptr, ptr, ptr, ptr, ptr, ptr, ptr, ptr, ptr, ptr, ptr, ptr, ptr, ptr, ptr, ptr, ptr, ptr, ptr, ptr, ptr, ptr, ptr, ptr, ptr, ptr, ptr, ptr, ptr, ptr, ptr, ptr, ptr, ptr, ptr, ptr, ptr, ptr, ptr, ptr, ptr, ptr, ptr, ptr, ptr, ptr, ptr, ptr, ptr, ptr, ptr, ptr, ptr, ptr, ptr, ptr, ptr, ptr, ptr, ptr, ptr, ptr, ptr, ptr, ptr, ptr, ptr, ptr, ptr, ptr, ptr, ptr, ptr, ptr, ptr, ptr, ptr, ptr, ptr, ptr, ptr, ptr, ptr, ptr, ptr, ptr, ptr, ptr, ptr, ptr, ptr, ptr, ptr, ptr, ptr, ptr, ptr, ptr, ptr, ptr, ptr, ptr, ptr, ptr, ptr, ptr, ptr, ptr, ptr, ptr, ptr, ptr, ptr, ptr, ptr, ptr, ptr, ptr, ptr, ptr, ptr, ptr, ptr, ptr, ptr, ptr, ptr, ptr, ptr, ptr, ptr, ptr, ptr, ptr, ptr, ptr, ptr, ptr, ptr, ptr, ptr, ptr, ptr, ptr, ptr, ptr, ptr, ptr, ptr, ptr, ptr, ptr, ptr, ptr, ptr, ptr, ptr, ptr, ptr, ptr, ptr, ptr, ptr, ptr, ptr, ptr, ptr, ptr, ptr, ptr, ptr, ptr, ptr, ptr, ptr, ptr, ptr, ptr, ptr, ptr, ptr, ptr, ptr, ptr, ptr, ptr, ptr, ptr, ptr, ptr, ptr, ptr, ptr, ptr, ptr, ptr, ptr, ptr, ptr, ptr, ptr, ptr, ptr, ptr, ptr, ptr, ptr, ptr, ptr, ptr, ptr, ptr, ptr, ptr, ptr, ptr, ptr, ptr, ptr, ptr, ptr, ptr, ptr, ptr, ptr, ptr, ptr, ptr, ptr, ptr, ptr, ptr, ptr, ptr, ptr, ptr, ptr, ptr, ptr, ptr, ptr, ptr, ptr, ptr, ptr, ptr, ptr, ptr, ptr, ptr, ptr, ptr, ptr, ptr, ptr, ptr, ptr, ptr, ptr, ptr, ptr, ptr, ptr, ptr, ptr, ptr, ptr, ptr, ptr, ptr, ptr, ptr, ptr, ptr, ptr, ptr, ptr, ptr, ptr, ptr, ptr, ptr, ptr, ptr, ptr, ptr, ptr, ptr, ptr, ptr, ptr, ptr, ptr, ptr, ptr, ptr, ptr, ptr, ptr, ptr, ptr, ptr, ptr, ptr, ptr, ptr, ptr, ptr, ptr, ptr, ptr, ptr, ptr, ptr, ptr, ptr, ptr, ptr, ptr, ptr, ptr, ptr, ptr, ptr, ptr, ptr, ptr, ptr, ptr, ptr, ptr, ptr, ptr, ptr, ptr, ptr, ptr, ptr, ptr, ptr, ptr, ptr, ptr, ptr, ptr, ptr, ptr, ptr, ptr, ptr, ptr, ptr, ptr, ptr, ptr, ptr, ptr, ptr, ptr, ptr, ptr, ptr, ptr, ptr, ptr, ptr, ptr, ptr, ptr, ptr, ptr, ptr, ptr, ptr, ptr, ptr, ptr, ptr, ptr, ptr, ptr, ptr, ptr, ptr, ptr, ptr, ptr, ptr, ptr, ptr, ptr, ptr, ptr, ptr, ptr, ptr, ptr, ptr, ptr, ptr, ptr, ptr, ptr, ptr, ptr, ptr, ptr, ptr, ptr, ptr, ptr, ptr, ptr, ptr, ptr, ptr, ptr, ptr, ptr, ptr, ptr, ptr, ptr, ptr, ptr, ptr, ptr, ptr, ptr, ptr, ptr, ptr, ptr, ptr, ptr, ptr, ptr, ptr, ptr, ptr, ptr, ptr, ptr, ptr, ptr, ptr, ptr, ptr, ptr, ptr, ptr, ptr }
%struct.SqliteDb = type { ptr, ptr, ptr, ptr, ptr, ptr, ptr, ptr, ptr, ptr, i32, ptr, ptr, ptr, ptr, ptr, ptr, ptr, ptr, i32, ptr, ptr, ptr, i32, i32, ptr, i32, i32, i32, i32, i32, i32, i32 }
%struct.Tcl_Obj = type { i32, ptr, i32, ptr, %union.anon }
%union.anon = type { %struct.anon }
%struct.anon = type { ptr, ptr }

@tclStubsPtr = external global ptr, align 8
@DbUpdateHandler.azStr = internal global [3 x ptr] [ptr @.str.229, ptr @.str.230, ptr @.str.231], align 16

; Function Attrs: nounwind uwtable
define internal void @DbUpdateHandler(ptr noundef %0, i32 noundef %1, ptr noundef %2, ptr noundef %3, i64 noundef %4) #0 {
  %6 = alloca ptr, align 8
  %7 = alloca i32, align 4
  %8 = alloca ptr, align 8
  %9 = alloca ptr, align 8
  %10 = alloca i64, align 8
  %11 = alloca ptr, align 8
  %12 = alloca ptr, align 8
  %13 = alloca ptr, align 8
  store ptr %0, ptr %6, align 8, !tbaa !15
  store i32 %1, ptr %7, align 4, !tbaa !8
  store ptr %2, ptr %8, align 8, !tbaa !18
  store ptr %3, ptr %9, align 8, !tbaa !18
  store i64 %4, ptr %10, align 8, !tbaa !97
  call void @llvm.lifetime.start.p0(i64 8, ptr %11) #10
  %14 = load ptr, ptr %6, align 8, !tbaa !15
  store ptr %14, ptr %11, align 8, !tbaa !30
  call void @llvm.lifetime.start.p0(i64 8, ptr %12) #10
  %15 = load ptr, ptr @tclStubsPtr, align 8, !tbaa !10
  %16 = getelementptr inbounds nuw %struct.TclStubs, ptr %15, i32 0, i32 31
  %17 = load ptr, ptr %16, align 8, !tbaa !74
  %18 = load ptr, ptr %11, align 8, !tbaa !30
  %19 = getelementptr inbounds nuw %struct.SqliteDb, ptr %18, i32 0, i32 13
  %20 = load ptr, ptr %19, align 8, !tbaa !213
  %21 = call ptr %17(ptr noundef %20)
  store ptr %21, ptr %12, align 8, !tbaa !21
  %22 = load ptr, ptr %12, align 8, !tbaa !21
  %23 = getelementptr inbounds nuw %struct.Tcl_Obj, ptr %22, i32 0, i32 0
  %24 = load i32, ptr %23, align 8, !tbaa !70
  %25 = add nsw i32 %24, 1
  store i32 %25, ptr %23, align 8, !tbaa !70
  %26 = load ptr, ptr @tclStubsPtr, align 8, !tbaa !10
  %27 = getelementptr inbounds nuw %struct.TclStubs, ptr %26, i32 0, i32 46
  %28 = load ptr, ptr %27, align 8, !tbaa !80
  %29 = load ptr, ptr %12, align 8, !tbaa !21
  %30 = load ptr, ptr @tclStubsPtr, align 8, !tbaa !10
  %31 = getelementptr inbounds nuw %struct.TclStubs, ptr %30, i32 0, i32 58
  %32 = load ptr, ptr %31, align 8, !tbaa !81
  %33 = load i32, ptr %7, align 4, !tbaa !8
  %34 = sub nsw i32 %33, 1
  %35 = sdiv i32 %34, 9
  %36 = sext i32 %35 to i64
  %37 = getelementptr inbounds [3 x ptr], ptr @DbUpdateHandler.azStr, i64 0, i64 %36
  %38 = load ptr, ptr %37, align 8, !tbaa !18
  %39 = call ptr %32(ptr noundef %38, i32 noundef -1)
  %40 = call i32 %28(ptr noundef null, ptr noundef %29, ptr noundef %39)
  %41 = load ptr, ptr @tclStubsPtr, align 8, !tbaa !10
  %42 = getelementptr inbounds nuw %struct.TclStubs, ptr %41, i32 0, i32 46
  %43 = load ptr, ptr %42, align 8, !tbaa !80
  %44 = load ptr, ptr %12, align 8, !tbaa !21
  %45 = load ptr, ptr @tclStubsPtr, align 8, !tbaa !10
  %46 = getelementptr inbounds nuw %struct.TclStubs, ptr %45, i32 0, i32 58
  %47 = load ptr, ptr %46, align 8, !tbaa !81
  %48 = load ptr, ptr %8, align 8, !tbaa !18
  %49 = call ptr %47(ptr noundef %48, i32 noundef -1)
  %50 = call i32 %43(ptr noundef null, ptr noundef %44, ptr noundef %49)
  %51 = load ptr, ptr @tclStubsPtr, align 8, !tbaa !10
  %52 = getelementptr inbounds nuw %struct.TclStubs, ptr %51, i32 0, i32 46
  %53 = load ptr, ptr %52, align 8, !tbaa !80
  %54 = load ptr, ptr %12, align 8, !tbaa !21
  %55 = load ptr, ptr @tclStubsPtr, align 8, !tbaa !10
  %56 = getelementptr inbounds nuw %struct.TclStubs, ptr %55, i32 0, i32 58
  %57 = load ptr, ptr %56, align 8, !tbaa !81
  %58 = load ptr, ptr %9, align 8, !tbaa !18
  %59 = call ptr %57(ptr noundef %58, i32 noundef -1)
  %60 = call i32 %53(ptr noundef null, ptr noundef %54, ptr noundef %59)
  %61 = load ptr, ptr @tclStubsPtr, align 8, !tbaa !10
  %62 = getelementptr inbounds nuw %struct.TclStubs, ptr %61, i32 0, i32 46
  %63 = load ptr, ptr %62, align 8, !tbaa !80
  %64 = load ptr, ptr %12, align 8, !tbaa !21
  %65 = load ptr, ptr @tclStubsPtr, align 8, !tbaa !10
  %66 = getelementptr inbounds nuw %struct.TclStubs, ptr %65, i32 0, i32 490
  %67 = load ptr, ptr %66, align 8, !tbaa !162
  %68 = load i64, ptr %10, align 8, !tbaa !97
  %69 = call ptr %67(i64 noundef %68)
  %70 = call i32 %63(ptr noundef null, ptr noundef %64, ptr noundef %69)
  %71 = load ptr, ptr @tclStubsPtr, align 8, !tbaa !10
  %72 = getelementptr inbounds nuw %struct.TclStubs, ptr %71, i32 0, i32 295
  %73 = load ptr, ptr %72, align 8, !tbaa !133
  %74 = load ptr, ptr %11, align 8, !tbaa !30
  %75 = getelementptr inbounds nuw %struct.SqliteDb, ptr %74, i32 0, i32 1
  %76 = load ptr, ptr %75, align 8, !tbaa !45
  %77 = load ptr, ptr %12, align 8, !tbaa !21
  %78 = call i32 %73(ptr noundef %76, ptr noundef %77, i32 noundef 262144)
  br label %79

79:                                               ; preds = %5
  call void @llvm.lifetime.start.p0(i64 8, ptr %13) #10
  %80 = load ptr, ptr %12, align 8, !tbaa !21
  store ptr %80, ptr %13, align 8, !tbaa !21
  %81 = load ptr, ptr %13, align 8, !tbaa !21
  %82 = getelementptr inbounds nuw %struct.Tcl_Obj, ptr %81, i32 0, i32 0
  %83 = load i32, ptr %82, align 8, !tbaa !70
  %84 = add nsw i32 %83, -1
  store i32 %84, ptr %82, align 8, !tbaa !70
  %85 = icmp sle i32 %83, 1
  br i1 %85, label %86, label %91

86:                                               ; preds = %79
  %87 = load ptr, ptr @tclStubsPtr, align 8, !tbaa !10
  %88 = getelementptr inbounds nuw %struct.TclStubs, ptr %87, i32 0, i32 32
  %89 = load ptr, ptr %88, align 8, !tbaa !73
  %90 = load ptr, ptr %13, align 8, !tbaa !21
  call void %89(ptr noundef %90)
  br label %91

91:                                               ; preds = %86, %79
  call void @llvm.lifetime.end.p0(i64 8, ptr %13) #10
  br label %92

92:                                               ; preds = %91
  br label %93

93:                                               ; preds = %92
  call void @llvm.lifetime.end.p0(i64 8, ptr %12) #10
  call void @llvm.lifetime.end.p0(i64 8, ptr %11) #10
  ret void
}