; Function Attrs: nounwind uwtable
define internal void @DbUpdateHandler(ptr noundef readonly captures(none) %0, i32 noundef %1, ptr noundef %2, ptr noundef %3, i64 noundef %4) #0 {
  %6 = load ptr, ptr @tclStubsPtr, align 8, !tbaa !3
  %7 = getelementptr inbounds nuw i8, ptr %6, i64 248
  %8 = load ptr, ptr %7, align 8, !tbaa !65
  %9 = getelementptr inbounds nuw i8, ptr %0, i64 104
  %10 = load ptr, ptr %9, align 8, !tbaa !201
  %11 = tail call ptr %8(ptr noundef %10) #14
  %12 = load i32, ptr %11, align 8, !tbaa !61
  %13 = add nsw i32 %12, 1
  store i32 %13, ptr %11, align 8, !tbaa !61
  %14 = load ptr, ptr @tclStubsPtr, align 8, !tbaa !3
  %15 = getelementptr inbounds nuw i8, ptr %14, i64 368
  %16 = load ptr, ptr %15, align 8, !tbaa !71
  %17 = getelementptr inbounds nuw i8, ptr %14, i64 464
  %18 = load ptr, ptr %17, align 8, !tbaa !72
  %19 = add nsw i32 %1, -1
  %20 = sdiv i32 %19, 9
  %21 = sext i32 %20 to i64
  %22 = getelementptr inbounds [3 x ptr], ptr @DbUpdateHandler.azStr, i64 0, i64 %21
  %23 = load ptr, ptr %22, align 8, !tbaa !82
  %24 = tail call ptr %18(ptr noundef %23, i32 noundef -1) #14
  %25 = tail call i32 %16(ptr noundef null, ptr noundef nonnull %11, ptr noundef %24) #14
  %26 = load ptr, ptr @tclStubsPtr, align 8, !tbaa !3
  %27 = getelementptr inbounds nuw i8, ptr %26, i64 368
  %28 = load ptr, ptr %27, align 8, !tbaa !71
  %29 = getelementptr inbounds nuw i8, ptr %26, i64 464
  %30 = load ptr, ptr %29, align 8, !tbaa !72
  %31 = tail call ptr %30(ptr noundef %2, i32 noundef -1) #14
  %32 = tail call i32 %28(ptr noundef null, ptr noundef nonnull %11, ptr noundef %31) #14
  %33 = load ptr, ptr @tclStubsPtr, align 8, !tbaa !3
  %34 = getelementptr inbounds nuw i8, ptr %33, i64 368
  %35 = load ptr, ptr %34, align 8, !tbaa !71
  %36 = getelementptr inbounds nuw i8, ptr %33, i64 464
  %37 = load ptr, ptr %36, align 8, !tbaa !72
  %38 = tail call ptr %37(ptr noundef %3, i32 noundef -1) #14
  %39 = tail call i32 %35(ptr noundef null, ptr noundef nonnull %11, ptr noundef %38) #14
  %40 = load ptr, ptr @tclStubsPtr, align 8, !tbaa !3
  %41 = getelementptr inbounds nuw i8, ptr %40, i64 368
  %42 = load ptr, ptr %41, align 8, !tbaa !71
  %43 = getelementptr inbounds nuw i8, ptr %40, i64 3920
  %44 = load ptr, ptr %43, align 8, !tbaa !167
  %45 = tail call ptr %44(i64 noundef %4) #14
  %46 = tail call i32 %42(ptr noundef null, ptr noundef nonnull %11, ptr noundef %45) #14
  %47 = load ptr, ptr @tclStubsPtr, align 8, !tbaa !3
  %48 = getelementptr inbounds nuw i8, ptr %47, i64 2360
  %49 = load ptr, ptr %48, align 8, !tbaa !121
  %50 = getelementptr inbounds nuw i8, ptr %0, i64 8
  %51 = load ptr, ptr %50, align 8, !tbaa !39
  %52 = tail call i32 %49(ptr noundef %51, ptr noundef nonnull %11, i32 noundef 262144) #14
  %53 = load i32, ptr %11, align 8, !tbaa !61
  %54 = add nsw i32 %53, -1
  store i32 %54, ptr %11, align 8, !tbaa !61
  %55 = icmp slt i32 %53, 2
  br i1 %55, label %56, label %60

56:                                               ; preds = %5
  %57 = load ptr, ptr @tclStubsPtr, align 8, !tbaa !3
  %58 = getelementptr inbounds nuw i8, ptr %57, i64 256
  %59 = load ptr, ptr %58, align 8, !tbaa !64
  tail call void %59(ptr noundef nonnull %11) #14
  br label %60

60:                                               ; preds = %56, %5
  ret void
}